target datalayout = "e-m:e-p270:32:32-p271:32:32-p272:64:64-i64:64-i128:128-f80:128-n8:16:32:64-S128"
target triple = "x86_64-pc-linux-gnu"

%"struct.mitsuba::Vector" = type { %"struct.drjit::StaticArrayImpl" }
%"struct.drjit::StaticArrayImpl" = type { [2 x i32] }
%"class.mitsuba::Spiral" = type <{ %"class.mitsuba::Object.base", [4 x i8], %"class.std::__1::mutex", %"struct.mitsuba::Vector", %"struct.mitsuba::Vector", %"struct.mitsuba::Vector", %"struct.mitsuba::Point", i32, i32, i32, i32, i32, i32, i32, [4 x i8] }>
%"class.mitsuba::Object.base" = type <{ ptr, %"struct.std::__1::atomic" }>
%"struct.std::__1::atomic" = type { %"struct.std::__1::__atomic_base" }
%"struct.std::__1::__atomic_base" = type { %"struct.std::__1::__atomic_base.0" }
%"struct.std::__1::__atomic_base.0" = type { %"struct.std::__1::__cxx_atomic_impl" }
%"struct.std::__1::__cxx_atomic_impl" = type { %"struct.std::__1::__cxx_atomic_base_impl" }
%"struct.std::__1::__cxx_atomic_base_impl" = type { i32 }
%"class.std::__1::mutex" = type { %union.pthread_mutex_t }
%union.pthread_mutex_t = type { %struct.__pthread_mutex_s }
%struct.__pthread_mutex_s = type { i32, i32, i32, i32, i32, i16, i16, %struct.__pthread_internal_list }
%struct.__pthread_internal_list = type { ptr, ptr }
%"struct.mitsuba::Point" = type { %"struct.drjit::StaticArrayImpl.1" }
%"struct.drjit::StaticArrayImpl.1" = type { [2 x i32] }

; Function Attrs: mustprogress uwtable
define linkonce_odr hidden void @_ZN5drjit15StaticArrayImplIiLm2ELb0EN7mitsuba5PointIiLm2EEEiEC2IjNS1_6VectorIjLm2EEES3_TnNSt3__19enable_ifIXaaeqsrT1_4SizesrT0_4SizeeqsrSA_5DepthsrSB_5DepthEiE4typeELi0EEERKNS_9ArrayBaseIT_Lb0ESB_EE(ptr noundef nonnull align 4 dereferenceable(8) %0, ptr noundef nonnull align 1 dereferenceable(1) %1) unnamed_addr #0 comdat align 2 {
  %3 = alloca ptr, align 8
  %4 = alloca i64, align 8
  %5 = alloca ptr, align 8
  %6 = alloca ptr, align 8
  %7 = alloca ptr, align 8
  %8 = alloca ptr, align 8
  %9 = alloca i64, align 8
  %10 = alloca ptr, align 8
  %11 = alloca ptr, align 8
  %12 = alloca ptr, align 8
  %13 = alloca i64, align 8
  store ptr %0, ptr %11, align 8
  store ptr %1, ptr %12, align 8
  %14 = load ptr, ptr %11, align 8
  store i64 0, ptr %13, align 8
  br label %15

15:                                               ; preds = %32, %2
  %16 = load i64, ptr %13, align 8
  store ptr %14, ptr %6, align 8
  %17 = load ptr, ptr %6, align 8
  store ptr %17, ptr %5, align 8
  %18 = icmp ult i64 %16, 2
  br i1 %18, label %19, label %35

19:                                               ; preds = %15
  %20 = load ptr, ptr %12, align 8
  store ptr %20, ptr %10, align 8
  %21 = load ptr, ptr %10, align 8
  %22 = load i64, ptr %13, align 8
  store ptr %21, ptr %8, align 8
  store i64 %22, ptr %9, align 8
  %23 = load ptr, ptr %8, align 8
  %24 = load i64, ptr %9, align 8
  %25 = getelementptr inbounds [2 x i32], ptr %23, i64 0, i64 %24
  %26 = load i32, ptr %25, align 4
  store ptr %14, ptr %7, align 8
  %27 = load ptr, ptr %7, align 8
  %28 = load i64, ptr %13, align 8
  store ptr %27, ptr %3, align 8
  store i64 %28, ptr %4, align 8
  %29 = load ptr, ptr %3, align 8
  %30 = load i64, ptr %4, align 8
  %31 = getelementptr inbounds [2 x i32], ptr %29, i64 0, i64 %30
  store i32 %26, ptr %31, align 4
  br label %32

32:                                               ; preds = %19
  %33 = load i64, ptr %13, align 8
  %34 = add i64 %33, 1
  store i64 %34, ptr %13, align 8
  br label %15, !llvm.loop !12

35:                                               ; preds = %15
  ret void
}

; Function Attrs: mustprogress nounwind uwtable
define linkonce_odr hidden void @_ZN5drjit15StaticArrayImplIjLm2ELb0EN7mitsuba6VectorIjLm2EEEiEC2IiTnNSt3__19enable_ifIXsr3stdE11is_scalar_vIT_EEiE4typeELi0EEES8_(ptr noundef nonnull align 4 dereferenceable(8) %0, i32 noundef %1) unnamed_addr #1 comdat align 2 {
  %3 = alloca ptr, align 8
  %4 = alloca i32, align 4
  %5 = alloca i32, align 4
  %6 = alloca i64, align 8
  store ptr %0, ptr %3, align 8
  store i32 %1, ptr %4, align 4
  %7 = load ptr, ptr %3, align 8
  %8 = load i32, ptr %4, align 4
  store i32 %8, ptr %5, align 4
  store i64 0, ptr %6, align 8
  br label %9

9:                                                ; preds = %17, %2
  %10 = load i64, ptr %6, align 8
  %11 = icmp ult i64 %10, 2
  br i1 %11, label %12, label %20

12:                                               ; preds = %9
  %13 = load i32, ptr %5, align 4
  %14 = getelementptr inbounds %"struct.drjit::StaticArrayImpl", ptr %7, i32 0, i32 0
  %15 = load i64, ptr %6, align 8
  %16 = getelementptr inbounds [2 x i32], ptr %14, i64 0, i64 %15
  store i32 %13, ptr %16, align 4
  br label %17

17:                                               ; preds = %12
  %18 = load i64, ptr %6, align 8
  %19 = add i64 %18, 1
  store i64 %19, ptr %6, align 8
  br label %9, !llvm.loop !11

20:                                               ; preds = %9
  ret void
}

; Function Attrs: mustprogress uwtable
define linkonce_odr hidden void @_ZN7mitsuba5PointIiLm2EECI2N5drjit15StaticArrayImplIiLm2ELb0ES1_iEEIjNS_6VectorIjLm2EEES1_TnNSt3__19enable_ifIXaaeqsrT1_4SizesrT0_4SizeeqsrS8_5DepthsrS9_5DepthEiE4typeELi0EEERKNS2_9ArrayBaseIT_Lb0ES9_EE(ptr noundef nonnull align 4 dereferenceable(8) %0, ptr noundef nonnull align 1 dereferenceable(1) %1) unnamed_addr #0 comdat align 2 {
  %3 = alloca ptr, align 8
  %4 = alloca ptr, align 8
  store ptr %0, ptr %3, align 8
  store ptr %1, ptr %4, align 8
  %5 = load ptr, ptr %3, align 8
  %6 = load ptr, ptr %4, align 8
  call void @_ZN5drjit15StaticArrayImplIiLm2ELb0EN7mitsuba5PointIiLm2EEEiEC2IjNS1_6VectorIjLm2EEES3_TnNSt3__19enable_ifIXaaeqsrT1_4SizesrT0_4SizeeqsrSA_5DepthsrSB_5DepthEiE4typeELi0EEERKNS_9ArrayBaseIT_Lb0ESB_EE(ptr noundef nonnull align 4 dereferenceable(8) %5, ptr noundef nonnull align 1 dereferenceable(1) %6)
  ret void
}

; Function Attrs: mustprogress uwtable
define linkonce_odr hidden i64 @_ZNK5drjit9ArrayBaseIjLb0EN7mitsuba6VectorIjLm2EEEE4div_ERKS3_(ptr noundef nonnull align 1 dereferenceable(1) %0, ptr noundef nonnull align 4 dereferenceable(8) %1) #0 comdat align 2 {
  %3 = alloca ptr, align 8
  %4 = alloca i64, align 8
  %5 = alloca ptr, align 8
  %6 = alloca ptr, align 8
  %7 = alloca i64, align 8
  %8 = alloca ptr, align 8
  %9 = alloca ptr, align 8
  %10 = alloca i64, align 8
  %11 = alloca ptr, align 8
  %12 = alloca i64, align 8
  %13 = alloca ptr, align 8
  %14 = alloca ptr, align 8
  %15 = alloca ptr, align 8
  %16 = alloca ptr, align 8
  %17 = alloca %"struct.mitsuba::Vector", align 4
  %18 = alloca ptr, align 8
  %19 = alloca ptr, align 8
  %20 = alloca i64, align 8
  %21 = alloca i64, align 8
  %22 = alloca i64, align 8
  %23 = alloca i64, align 8
  %24 = alloca ptr, align 8
  %25 = alloca ptr, align 8
  %26 = alloca i32, align 4
  store ptr %0, ptr %18, align 8
  store ptr %1, ptr %19, align 8
  %27 = load ptr, ptr %18, align 8
  store ptr %27, ptr %15, align 8
  %28 = load ptr, ptr %15, align 8
  store ptr %28, ptr %13, align 8
  store i64 2, ptr %20, align 8
  %29 = load ptr, ptr %19, align 8
  store ptr %29, ptr %14, align 8
  store i64 2, ptr %21, align 8
  %30 = load i64, ptr %20, align 8
  %31 = load i64, ptr %21, align 8
  %32 = icmp ugt i64 %30, %31
  br i1 %32, label %33, label %35

33:                                               ; preds = %2
  %34 = load i64, ptr %20, align 8
  br label %37

35:                                               ; preds = %2
  %36 = load i64, ptr %21, align 8
  br label %37

37:                                               ; preds = %35, %33
  %38 = phi i64 [ %34, %33 ], [ %36, %35 ]
  store i64 %38, ptr %22, align 8
  store i64 0, ptr %23, align 8
  br label %39

39:                                               ; preds = %68, %37
  %40 = load i64, ptr %23, align 8
  %41 = load i64, ptr %22, align 8
  %42 = icmp ult i64 %40, %41
  br i1 %42, label %43, label %71

43:                                               ; preds = %39
  store ptr %27, ptr %16, align 8
  %44 = load ptr, ptr %16, align 8
  %45 = load i64, ptr %23, align 8
  store ptr %44, ptr %9, align 8
  store i64 %45, ptr %10, align 8
  %46 = load ptr, ptr %9, align 8
  %47 = load i64, ptr %10, align 8
  %48 = getelementptr inbounds [2 x i32], ptr %46, i64 0, i64 %47
  store ptr %48, ptr %24, align 8
  %49 = load ptr, ptr %19, align 8
  %50 = load i64, ptr %23, align 8
  store ptr %49, ptr %11, align 8
  store i64 %50, ptr %12, align 8
  %51 = load ptr, ptr %11, align 8
  %52 = load i64, ptr %12, align 8
  %53 = getelementptr inbounds [2 x i32], ptr %51, i64 0, i64 %52
  store ptr %53, ptr %25, align 8
  %54 = load i64, ptr %23, align 8
  %55 = load ptr, ptr %24, align 8
  %56 = load i32, ptr %55, align 4
  %57 = load ptr, ptr %25, align 8
  %58 = load i32, ptr %57, align 4
  %59 = udiv i32 %56, %58
  store i32 %59, ptr %26, align 4
  store ptr %17, ptr %6, align 8
  store i64 %54, ptr %7, align 8
  store ptr %26, ptr %8, align 8
  %60 = load ptr, ptr %6, align 8
  %61 = load ptr, ptr %8, align 8
  %62 = load i32, ptr %61, align 4
  store ptr %60, ptr %5, align 8
  %63 = load ptr, ptr %5, align 8
  %64 = load i64, ptr %7, align 8
  store ptr %63, ptr %3, align 8
  store i64 %64, ptr %4, align 8
  %65 = load ptr, ptr %3, align 8
  %66 = load i64, ptr %4, align 8
  %67 = getelementptr inbounds [2 x i32], ptr %65, i64 0, i64 %66
  store i32 %62, ptr %67, align 4
  br label %68

68:                                               ; preds = %43
  %69 = load i64, ptr %23, align 8
  %70 = add i64 %69, 1
  store i64 %70, ptr %23, align 8
  br label %39, !llvm.loop !8

71:                                               ; preds = %39
  %72 = getelementptr inbounds %"struct.mitsuba::Vector", ptr %17, i32 0, i32 0
  %73 = getelementptr inbounds %"struct.drjit::StaticArrayImpl", ptr %72, i32 0, i32 0
  %74 = load i64, ptr %73, align 4
  ret i64 %74
}

; Function Attrs: mustprogress uwtable
define linkonce_odr hidden void @_ZN7mitsuba6VectorIjLm2EECI2N5drjit15StaticArrayImplIjLm2ELb0ES1_iEEIiTnNSt3__19enable_ifIXsr3stdE11is_scalar_vIT_EEiE4typeELi0EEES6_(ptr noundef nonnull align 4 dereferenceable(8) %0, i32 noundef %1) unnamed_addr #0 comdat align 2 {
  %3 = alloca ptr, align 8
  %4 = alloca i32, align 4
  store ptr %0, ptr %3, align 8
  store i32 %1, ptr %4, align 4
  %5 = load ptr, ptr %3, align 8
  %6 = load i32, ptr %4, align 4
  call void @_ZN5drjit15StaticArrayImplIjLm2ELb0EN7mitsuba6VectorIjLm2EEEiEC2IiTnNSt3__19enable_ifIXsr3stdE11is_scalar_vIT_EEiE4typeELi0EEES8_(ptr noundef nonnull align 4 dereferenceable(8) %5, i32 noundef %6)
  ret void
}

; Function Attrs: mustprogress uwtable
define void @_ZN7mitsuba6Spiral5resetEv(ptr noundef nonnull align 8 dereferenceable(116) %0) #0 align 2 {
  %2 = alloca ptr, align 8
  %3 = alloca ptr, align 8
  %4 = alloca %"struct.mitsuba::Vector", align 4
  %5 = alloca ptr, align 8
  %6 = alloca ptr, align 8
  %7 = alloca %"struct.mitsuba::Vector", align 4
  %8 = alloca ptr, align 8
  %9 = alloca ptr, align 8
  %10 = alloca %"struct.mitsuba::Vector", align 4
  %11 = alloca ptr, align 8
  %12 = alloca %"struct.mitsuba::Point", align 4
  %13 = alloca %"struct.mitsuba::Vector", align 4
  %14 = alloca i32, align 4
  store ptr %0, ptr %11, align 8
  %15 = load ptr, ptr %11, align 8
  %16 = getelementptr inbounds %"class.mitsuba::Spiral", ptr %15, i32 0, i32 8
  store i32 0, ptr %16, align 4
  %17 = getelementptr inbounds %"class.mitsuba::Spiral", ptr %15, i32 0, i32 7
  store i32 0, ptr %17, align 8
  %18 = getelementptr inbounds %"class.mitsuba::Spiral", ptr %15, i32 0, i32 5
  store i32 2, ptr %14, align 4
  store ptr %18, ptr %8, align 8
  store ptr %14, ptr %9, align 8
  %19 = load ptr, ptr %8, align 8
  %20 = load ptr, ptr %9, align 8
  %21 = load i32, ptr %20, align 4
  call void @_ZN7mitsuba6VectorIjLm2EECI2N5drjit15StaticArrayImplIjLm2ELb0ES1_iEEIiTnNSt3__19enable_ifIXsr3stdE11is_scalar_vIT_EEiE4typeELi0EEES6_(ptr noundef nonnull align 4 dereferenceable(8) %10, i32 noundef %21)
  store ptr %19, ptr %5, align 8
  store ptr %10, ptr %6, align 8
  %22 = load ptr, ptr %5, align 8
  store ptr %22, ptr %2, align 8
  %23 = load ptr, ptr %2, align 8
  %24 = load ptr, ptr %6, align 8
  store ptr %24, ptr %3, align 8
  %25 = load ptr, ptr %3, align 8
  %26 = call i64 @_ZNK5drjit9ArrayBaseIjLb0EN7mitsuba6VectorIjLm2EEEE4div_ERKS3_(ptr noundef nonnull align 1 dereferenceable(1) %23, ptr noundef nonnull align 4 dereferenceable(8) %25)
  store i64 %26, ptr %4, align 4
  %27 = load i64, ptr %4, align 4
  store i64 %27, ptr %7, align 4
  %28 = load i64, ptr %7, align 4
  %29 = getelementptr inbounds %"struct.mitsuba::Vector", ptr %13, i32 0, i32 0
  %30 = getelementptr inbounds %"struct.drjit::StaticArrayImpl", ptr %29, i32 0, i32 0
  store i64 %28, ptr %30, align 4
  call void @_ZN7mitsuba5PointIiLm2EECI2N5drjit15StaticArrayImplIiLm2ELb0ES1_iEEIjNS_6VectorIjLm2EEES1_TnNSt3__19enable_ifIXaaeqsrT1_4SizesrT0_4SizeeqsrS8_5DepthsrS9_5DepthEiE4typeELi0EEERKNS2_9ArrayBaseIT_Lb0ES9_EE(ptr noundef nonnull align 4 dereferenceable(8) %12, ptr noundef nonnull align 1 dereferenceable(1) %13)
  %31 = getelementptr inbounds %"class.mitsuba::Spiral", ptr %15, i32 0, i32 6
  call void @llvm.memcpy.p0.p0.i64(ptr align 8 %31, ptr align 4 %12, i64 8, i1 false)
  %32 = getelementptr inbounds %"class.mitsuba::Spiral", ptr %15, i32 0, i32 12
  store i32 1, ptr %32, align 4
  %33 = getelementptr inbounds %"class.mitsuba::Spiral", ptr %15, i32 0, i32 13
  store i32 1, ptr %33, align 8
  ret void
}