; Function Attrs: mustprogress nofree norecurse nosync nounwind willreturn memory(argmem: readwrite) uwtable
define void @_ZN7mitsuba6Spiral5resetEv(ptr nocapture noundef nonnull align 8 dereferenceable(116) %0) local_unnamed_addr #0 align 2 {
_ZNK5drjit9ArrayBaseIjLb0EN7mitsuba6VectorIjLm2EEEE4div_ERKS3_.exit.critedge:
  %1 = getelementptr inbounds i8, ptr %0, i64 92
  store i32 0, ptr %1, align 4
  %2 = getelementptr inbounds i8, ptr %0, i64 88
  store i32 0, ptr %2, align 8
  %3 = getelementptr inbounds i8, ptr %0, i64 72
  %4 = load i32, ptr %3, align 8
  %5 = lshr i32 %4, 1
  %6 = getelementptr inbounds i8, ptr %0, i64 76
  %7 = load i32, ptr %6, align 4
  %8 = lshr i32 %7, 1
  %9 = getelementptr inbounds i8, ptr %0, i64 80
  %.sroa.29.0.insert.ext = zext nneg i32 %8 to i64
  %.sroa.29.0.insert.shift = shl nuw nsw i64 %.sroa.29.0.insert.ext, 32
  %.sroa.08.0.insert.ext = zext nneg i32 %5 to i64
  %.sroa.08.0.insert.insert = or disjoint i64 %.sroa.29.0.insert.shift, %.sroa.08.0.insert.ext
  store i64 %.sroa.08.0.insert.insert, ptr %9, align 8
  %10 = getelementptr inbounds i8, ptr %0, i64 108
  store i32 1, ptr %10, align 4
  %11 = getelementptr inbounds i8, ptr %0, i64 112
  store i32 1, ptr %11, align 8
  ret void
}